target datalayout = "e-m:e-p270:32:32-p271:32:32-p272:64:64-i64:64-i128:128-f80:128-n8:16:32:64-S128"
target triple = "x86_64-pc-linux-gnu"

; Function Attrs: mustprogress nounwind uwtable
define noundef i32 @_ZN6Square11CornerIndexEii(i32 noundef %0, i32 noundef %1) #1 align 2 {
  %3 = alloca i32, align 4
  %4 = alloca i32, align 4
  store i32 %0, ptr %3, align 4
  store i32 %1, ptr %4, align 4
  %5 = load i32, ptr %4, align 4
  %6 = shl i32 %5, 1
  %7 = load i32, ptr %3, align 4
  %8 = or i32 %6, %7
  ret i32 %8
}

; Function Attrs: mustprogress nounwind uwtable
define void @_ZN6Square17FactorCornerIndexEiRiS0_(i32 noundef %0, ptr noundef nonnull align 4 dereferenceable(4) %1, ptr noundef nonnull align 4 dereferenceable(4) %2) #1 align 2 {
  %4 = alloca i32, align 4
  %5 = alloca ptr, align 8
  %6 = alloca ptr, align 8
  store i32 %0, ptr %4, align 4
  store ptr %1, ptr %5, align 8
  store ptr %2, ptr %6, align 8
  %7 = load i32, ptr %4, align 4
  %8 = ashr i32 %7, 0
  %9 = and i32 %8, 1
  %10 = load ptr, ptr %5, align 8
  store i32 %9, ptr %10, align 4
  %11 = load i32, ptr %4, align 4
  %12 = ashr i32 %11, 1
  %13 = and i32 %12, 1
  %14 = load ptr, ptr %6, align 8
  store i32 %13, ptr %14, align 4
  ret void
}

; Function Attrs: mustprogress nounwind uwtable
define noundef i32 @_ZN6Square18ReflectCornerIndexEii(i32 noundef %0, i32 noundef %1) #1 align 2 {
  %3 = alloca i32, align 4
  %4 = alloca i32, align 4
  %5 = alloca i32, align 4
  %6 = alloca i32, align 4
  %7 = alloca i32, align 4
  %8 = alloca i32, align 4
  store i32 %0, ptr %4, align 4
  store i32 %1, ptr %5, align 4
  %9 = load i32, ptr %5, align 4
  %10 = srem i32 %9, 2
  store i32 %10, ptr %6, align 4
  %11 = load i32, ptr %4, align 4
  call void @_ZN6Square17FactorCornerIndexEiRiS0_(i32 noundef %11, ptr noundef nonnull align 4 dereferenceable(4) %7, ptr noundef nonnull align 4 dereferenceable(4) %8)
  %12 = load i32, ptr %6, align 4
  switch i32 %12, label %25 [
    i32 0, label %13
    i32 1, label %19
  ]

13:                                               ; preds = %2
  %14 = load i32, ptr %7, align 4
  %15 = add nsw i32 %14, 1
  %16 = srem i32 %15, 2
  %17 = load i32, ptr %8, align 4
  %18 = call noundef i32 @_ZN6Square11CornerIndexEii(i32 noundef %16, i32 noundef %17)
  store i32 %18, ptr %3, align 4
  br label %26

19:                                               ; preds = %2
  %20 = load i32, ptr %7, align 4
  %21 = load i32, ptr %8, align 4
  %22 = add nsw i32 %21, 1
  %23 = srem i32 %22, 2
  %24 = call noundef i32 @_ZN6Square11CornerIndexEii(i32 noundef %20, i32 noundef %23)
  store i32 %24, ptr %3, align 4
  br label %26

25:                                               ; preds = %2
  store i32 -1, ptr %3, align 4
  br label %26

26:                                               ; preds = %25, %19, %13
  %27 = load i32, ptr %3, align 4
  ret i32 %27
}