; Function Attrs: mustprogress nofree norecurse nosync nounwind willreturn memory(none) uwtable
define noundef range(i32 -1, 4) i32 @_ZN6Square18ReflectCornerIndexEii(i32 noundef %0, i32 noundef %1) local_unnamed_addr #0 align 2 {
  %3 = srem i32 %1, 2
  switch i32 %3, label %9 [
    i32 0, label %4
    i32 1, label %7
  ]

4:                                                ; preds = %2
  %5 = and i32 %0, 3
  %6 = xor i32 %5, 1
  br label %9

7:                                                ; preds = %2
  %urem = and i32 %0, 3
  %8 = xor i32 %urem, 2
  br label %9

9:                                                ; preds = %2, %7, %4
  %.0 = phi i32 [ %8, %7 ], [ %6, %4 ], [ -1, %2 ]
  ret i32 %.0
}